target datalayout = "e-m:e-p270:32:32-p271:32:32-p272:64:64-i64:64-i128:128-f80:128-n8:16:32:64-S128"
target triple = "x86_64-pc-linux-gnu"

%struct.internal_hooks = type { ptr, ptr, ptr }
%struct.cJSON = type { ptr, ptr, ptr, i32, ptr, i32, double, ptr }

@global_hooks = internal global %struct.internal_hooks { ptr @malloc, ptr @free, ptr @realloc }, align 8

; Function Attrs: nounwind sspstrong uwtable
define internal ptr @cJSON_New_Item(ptr noundef %0) #0 {
  %2 = alloca ptr, align 8
  %3 = alloca ptr, align 8
  store ptr %0, ptr %2, align 8, !tbaa !35
  call void @llvm.lifetime.start.p0(i64 8, ptr %3) #10
  %4 = load ptr, ptr %2, align 8, !tbaa !35
  %5 = getelementptr inbounds nuw %struct.internal_hooks, ptr %4, i32 0, i32 0
  %6 = load ptr, ptr %5, align 8, !tbaa !21
  %7 = call ptr %6(i64 noundef 64)
  store ptr %7, ptr %3, align 8, !tbaa !11
  %8 = load ptr, ptr %3, align 8, !tbaa !11
  %9 = icmp ne ptr %8, null
  br i1 %9, label %10, label %12

10:                                               ; preds = %1
  %11 = load ptr, ptr %3, align 8, !tbaa !11
  call void @llvm.memset.p0.i64(ptr align 8 %11, i8 0, i64 64, i1 false)
  br label %12

12:                                               ; preds = %10, %1
  %13 = load ptr, ptr %3, align 8, !tbaa !11
  call void @llvm.lifetime.end.p0(i64 8, ptr %3) #10
  ret ptr %13
}

; Function Attrs: nounwind sspstrong uwtable
define internal void @suffix_object(ptr noundef %0, ptr noundef %1) #0 {
  %3 = alloca ptr, align 8
  %4 = alloca ptr, align 8
  store ptr %0, ptr %3, align 8, !tbaa !11
  store ptr %1, ptr %4, align 8, !tbaa !11
  %5 = load ptr, ptr %4, align 8, !tbaa !11
  %6 = load ptr, ptr %3, align 8, !tbaa !11
  %7 = getelementptr inbounds nuw %struct.cJSON, ptr %6, i32 0, i32 0
  store ptr %5, ptr %7, align 8, !tbaa !28
  %8 = load ptr, ptr %3, align 8, !tbaa !11
  %9 = load ptr, ptr %4, align 8, !tbaa !11
  %10 = getelementptr inbounds nuw %struct.cJSON, ptr %9, i32 0, i32 1
  store ptr %8, ptr %10, align 8, !tbaa !54
  ret void
}

; Function Attrs: nounwind sspstrong uwtable
define ptr @cJSON_CreateNumber(double noundef %0) #0 {
  %2 = alloca double, align 8
  %3 = alloca ptr, align 8
  store double %0, ptr %2, align 8, !tbaa !31
  call void @llvm.lifetime.start.p0(i64 8, ptr %3) #10
  %4 = call ptr @cJSON_New_Item(ptr noundef @global_hooks)
  store ptr %4, ptr %3, align 8, !tbaa !11
  %5 = load ptr, ptr %3, align 8, !tbaa !11
  %6 = icmp ne ptr %5, null
  br i1 %6, label %7, label %31

7:                                                ; preds = %1
  %8 = load ptr, ptr %3, align 8, !tbaa !11
  %9 = getelementptr inbounds nuw %struct.cJSON, ptr %8, i32 0, i32 3
  store i32 8, ptr %9, align 8, !tbaa !17
  %10 = load double, ptr %2, align 8, !tbaa !31
  %11 = load ptr, ptr %3, align 8, !tbaa !11
  %12 = getelementptr inbounds nuw %struct.cJSON, ptr %11, i32 0, i32 6
  store double %10, ptr %12, align 8, !tbaa !18
  %13 = load double, ptr %2, align 8, !tbaa !31
  %14 = fcmp oge double %13, 0x41DFFFFFFFC00000
  br i1 %14, label %15, label %18

15:                                               ; preds = %7
  %16 = load ptr, ptr %3, align 8, !tbaa !11
  %17 = getelementptr inbounds nuw %struct.cJSON, ptr %16, i32 0, i32 5
  store i32 2147483647, ptr %17, align 8, !tbaa !32
  br label %30

18:                                               ; preds = %7
  %19 = load double, ptr %2, align 8, !tbaa !31
  %20 = fcmp ole double %19, 0xC1E0000000000000
  br i1 %20, label %21, label %24

21:                                               ; preds = %18
  %22 = load ptr, ptr %3, align 8, !tbaa !11
  %23 = getelementptr inbounds nuw %struct.cJSON, ptr %22, i32 0, i32 5
  store i32 -2147483648, ptr %23, align 8, !tbaa !32
  br label %29

24:                                               ; preds = %18
  %25 = load double, ptr %2, align 8, !tbaa !31
  %26 = fptosi double %25 to i32
  %27 = load ptr, ptr %3, align 8, !tbaa !11
  %28 = getelementptr inbounds nuw %struct.cJSON, ptr %27, i32 0, i32 5
  store i32 %26, ptr %28, align 8, !tbaa !32
  br label %29

29:                                               ; preds = %24, %21
  br label %30

30:                                               ; preds = %29, %15
  br label %31

31:                                               ; preds = %30, %1
  %32 = load ptr, ptr %3, align 8, !tbaa !11
  call void @llvm.lifetime.end.p0(i64 8, ptr %3) #10
  ret ptr %32
}

; Function Attrs: nounwind sspstrong uwtable
define ptr @cJSON_CreateArray() #0 {
  %1 = alloca ptr, align 8
  call void @llvm.lifetime.start.p0(i64 8, ptr %1) #10
  %2 = call ptr @cJSON_New_Item(ptr noundef @global_hooks)
  store ptr %2, ptr %1, align 8, !tbaa !11
  %3 = load ptr, ptr %1, align 8, !tbaa !11
  %4 = icmp ne ptr %3, null
  br i1 %4, label %5, label %8

5:                                                ; preds = %0
  %6 = load ptr, ptr %1, align 8, !tbaa !11
  %7 = getelementptr inbounds nuw %struct.cJSON, ptr %6, i32 0, i32 3
  store i32 32, ptr %7, align 8, !tbaa !17
  br label %8

8:                                                ; preds = %5, %0
  %9 = load ptr, ptr %1, align 8, !tbaa !11
  call void @llvm.lifetime.end.p0(i64 8, ptr %1) #10
  ret ptr %9
}

; Function Attrs: nounwind sspstrong uwtable
define ptr @cJSON_CreateDoubleArray(ptr noundef %0, i32 noundef %1) #0 {
  %3 = alloca ptr, align 8
  %4 = alloca ptr, align 8
  %5 = alloca i32, align 4
  %6 = alloca i64, align 8
  %7 = alloca ptr, align 8
  %8 = alloca ptr, align 8
  %9 = alloca ptr, align 8
  %10 = alloca i32, align 4
  store ptr %0, ptr %4, align 8, !tbaa !61
  store i32 %1, ptr %5, align 4, !tbaa !40
  call void @llvm.lifetime.start.p0(i64 8, ptr %6) #10
  store i64 0, ptr %6, align 8, !tbaa !34
  call void @llvm.lifetime.start.p0(i64 8, ptr %7) #10
  store ptr null, ptr %7, align 8, !tbaa !11
  call void @llvm.lifetime.start.p0(i64 8, ptr %8) #10
  store ptr null, ptr %8, align 8, !tbaa !11
  call void @llvm.lifetime.start.p0(i64 8, ptr %9) #10
  store ptr null, ptr %9, align 8, !tbaa !11
  %11 = load i32, ptr %5, align 4, !tbaa !40
  %12 = icmp slt i32 %11, 0
  br i1 %12, label %16, label %13

13:                                               ; preds = %2
  %14 = load ptr, ptr %4, align 8, !tbaa !61
  %15 = icmp eq ptr %14, null
  br i1 %15, label %16, label %17

16:                                               ; preds = %13, %2
  store ptr null, ptr %3, align 8
  store i32 1, ptr %10, align 4
  br label %70

17:                                               ; preds = %13
  %18 = call ptr @cJSON_CreateArray()
  store ptr %18, ptr %9, align 8, !tbaa !11
  store i64 0, ptr %6, align 8, !tbaa !34
  br label %19

19:                                               ; preds = %51, %17
  %20 = load ptr, ptr %9, align 8, !tbaa !11
  %21 = icmp ne ptr %20, null
  br i1 %21, label %22, label %27

22:                                               ; preds = %19
  %23 = load i64, ptr %6, align 8, !tbaa !34
  %24 = load i32, ptr %5, align 4, !tbaa !40
  %25 = sext i32 %24 to i64
  %26 = icmp ult i64 %23, %25
  br label %27

27:                                               ; preds = %22, %19
  %28 = phi i1 [ false, %19 ], [ %26, %22 ]
  br i1 %28, label %29, label %54

29:                                               ; preds = %27
  %30 = load ptr, ptr %4, align 8, !tbaa !61
  %31 = load i64, ptr %6, align 8, !tbaa !34
  %32 = getelementptr inbounds nuw double, ptr %30, i64 %31
  %33 = load double, ptr %32, align 8, !tbaa !31
  %34 = call ptr @cJSON_CreateNumber(double noundef %33)
  store ptr %34, ptr %7, align 8, !tbaa !11
  %35 = load ptr, ptr %7, align 8, !tbaa !11
  %36 = icmp ne ptr %35, null
  br i1 %36, label %39, label %37

37:                                               ; preds = %29
  %38 = load ptr, ptr %9, align 8, !tbaa !11
  call void @cJSON_Delete(ptr noundef %38)
  store ptr null, ptr %3, align 8
  store i32 1, ptr %10, align 4
  br label %70

39:                                               ; preds = %29
  %40 = load i64, ptr %6, align 8, !tbaa !34
  %41 = icmp ne i64 %40, 0
  br i1 %41, label %46, label %42

42:                                               ; preds = %39
  %43 = load ptr, ptr %7, align 8, !tbaa !11
  %44 = load ptr, ptr %9, align 8, !tbaa !11
  %45 = getelementptr inbounds nuw %struct.cJSON, ptr %44, i32 0, i32 2
  store ptr %43, ptr %45, align 8, !tbaa !29
  br label %49

46:                                               ; preds = %39
  %47 = load ptr, ptr %8, align 8, !tbaa !11
  %48 = load ptr, ptr %7, align 8, !tbaa !11
  call void @suffix_object(ptr noundef %47, ptr noundef %48)
  br label %49

49:                                               ; preds = %46, %42
  %50 = load ptr, ptr %7, align 8, !tbaa !11
  store ptr %50, ptr %8, align 8, !tbaa !11
  br label %51

51:                                               ; preds = %49
  %52 = load i64, ptr %6, align 8, !tbaa !34
  %53 = add i64 %52, 1
  store i64 %53, ptr %6, align 8, !tbaa !34
  br label %19

54:                                               ; preds = %27
  %55 = load ptr, ptr %9, align 8, !tbaa !11
  %56 = icmp ne ptr %55, null
  br i1 %56, label %57, label %68

57:                                               ; preds = %54
  %58 = load ptr, ptr %9, align 8, !tbaa !11
  %59 = getelementptr inbounds nuw %struct.cJSON, ptr %58, i32 0, i32 2
  %60 = load ptr, ptr %59, align 8, !tbaa !29
  %61 = icmp ne ptr %60, null
  br i1 %61, label %62, label %68

62:                                               ; preds = %57
  %63 = load ptr, ptr %7, align 8, !tbaa !11
  %64 = load ptr, ptr %9, align 8, !tbaa !11
  %65 = getelementptr inbounds nuw %struct.cJSON, ptr %64, i32 0, i32 2
  %66 = load ptr, ptr %65, align 8, !tbaa !29
  %67 = getelementptr inbounds nuw %struct.cJSON, ptr %66, i32 0, i32 1
  store ptr %63, ptr %67, align 8, !tbaa !54
  br label %68

68:                                               ; preds = %62, %57, %54
  %69 = load ptr, ptr %9, align 8, !tbaa !11
  store ptr %69, ptr %3, align 8
  store i32 1, ptr %10, align 4
  br label %70

70:                                               ; preds = %68, %37, %16
  call void @llvm.lifetime.end.p0(i64 8, ptr %9) #10
  call void @llvm.lifetime.end.p0(i64 8, ptr %8) #10
  call void @llvm.lifetime.end.p0(i64 8, ptr %7) #10
  call void @llvm.lifetime.end.p0(i64 8, ptr %6) #10
  %71 = load ptr, ptr %3, align 8
  ret ptr %71
}